target datalayout = "e-m:e-p270:32:32-p271:32:32-p272:64:64-i64:64-i128:128-f80:128-n8:16:32:64-S128"
target triple = "x86_64-pc-linux-gnu"

%struct.tm = type { i32, i32, i32, i32, i32, i32, i32, i32, i32, i64, ptr }

@.str = private unnamed_addr constant [5 x i8] c"NULL\00", align 1
@.str.1 = private unnamed_addr constant [18 x i8] c"Not representable\00", align 1
@.str.2 = private unnamed_addr constant [30 x i8] c"%s %2d, %d %02d:%02d:%02d UTC\00", align 1
@mon_names = internal global [12 x ptr] [ptr @.str.616, ptr @.str.617, ptr @.str.618, ptr @.str.619, ptr @.str.620, ptr @.str.621, ptr @.str.622, ptr @.str.623, ptr @.str.624, ptr @.str.625, ptr @.str.626, ptr @.str.627], align 16

; Function Attrs: null_pointer_is_valid sspstrong uwtable
define hidden ptr @tvb_ntp_fmt_ts_sec(ptr noundef %0, i32 noundef %1) #0 {
  %3 = alloca ptr, align 8
  %4 = alloca ptr, align 8
  %5 = alloca i32, align 4
  %6 = alloca i32, align 4
  %7 = alloca i64, align 8
  %8 = alloca ptr, align 8
  %9 = alloca ptr, align 8
  %10 = alloca i32, align 4
  store ptr %0, ptr %4, align 8
  store i32 %1, ptr %5, align 4
  call void @llvm.lifetime.start.p0(i64 4, ptr %6) #10
  call void @llvm.lifetime.start.p0(i64 8, ptr %7) #10
  call void @llvm.lifetime.start.p0(i64 8, ptr %8) #10
  call void @llvm.lifetime.start.p0(i64 8, ptr %9) #10
  %11 = load ptr, ptr %4, align 8
  %12 = load i32, ptr %5, align 4
  %13 = call i32 @tvb_get_ntohl(ptr noundef %11, i32 noundef %12)
  store i32 %13, ptr %6, align 4
  %14 = load i32, ptr %6, align 4
  %15 = icmp eq i32 %14, 0
  br i1 %15, label %16, label %17

16:                                               ; preds = %2
  store ptr @.str, ptr %3, align 8
  store i32 1, ptr %10, align 4
  br label %55

17:                                               ; preds = %2
  %18 = load i32, ptr %6, align 4
  %19 = sub i32 %18, -2085978496
  %20 = zext i32 %19 to i64
  store i64 %20, ptr %7, align 8
  %21 = call ptr @gmtime(ptr noundef %7) #10
  store ptr %21, ptr %8, align 8
  %22 = load ptr, ptr %8, align 8
  %23 = icmp ne ptr %22, null
  br i1 %23, label %25, label %24

24:                                               ; preds = %17
  store ptr @.str.1, ptr %3, align 8
  store i32 1, ptr %10, align 4
  br label %55

25:                                               ; preds = %17
  %26 = call ptr @wmem_packet_scope()
  %27 = call noalias ptr @wmem_alloc(ptr noundef %26, i64 noundef 110) #11
  store ptr %27, ptr %9, align 8
  %28 = load ptr, ptr %9, align 8
  %29 = load ptr, ptr %9, align 8
  %30 = call i64 @llvm.objectsize.i64.p0(ptr %29, i1 false, i1 true, i1 true)
  %31 = load ptr, ptr %8, align 8
  %32 = getelementptr inbounds nuw %struct.tm, ptr %31, i32 0, i32 4
  %33 = load i32, ptr %32, align 8
  %34 = sext i32 %33 to i64
  %35 = getelementptr [12 x ptr], ptr @mon_names, i64 0, i64 %34
  %36 = load ptr, ptr %35, align 8
  %37 = load ptr, ptr %8, align 8
  %38 = getelementptr inbounds nuw %struct.tm, ptr %37, i32 0, i32 3
  %39 = load i32, ptr %38, align 4
  %40 = load ptr, ptr %8, align 8
  %41 = getelementptr inbounds nuw %struct.tm, ptr %40, i32 0, i32 5
  %42 = load i32, ptr %41, align 4
  %43 = add i32 %42, 1900
  %44 = load ptr, ptr %8, align 8
  %45 = getelementptr inbounds nuw %struct.tm, ptr %44, i32 0, i32 2
  %46 = load i32, ptr %45, align 8
  %47 = load ptr, ptr %8, align 8
  %48 = getelementptr inbounds nuw %struct.tm, ptr %47, i32 0, i32 1
  %49 = load i32, ptr %48, align 4
  %50 = load ptr, ptr %8, align 8
  %51 = getelementptr inbounds nuw %struct.tm, ptr %50, i32 0, i32 0
  %52 = load i32, ptr %51, align 8
  %53 = call i32 (ptr, i64, i32, i64, ptr, ...) @__snprintf_chk(ptr noundef %28, i64 noundef 110, i32 noundef 2, i64 noundef %30, ptr noundef @.str.2, ptr noundef %36, i32 noundef %39, i32 noundef %43, i32 noundef %46, i32 noundef %49, i32 noundef %52)
  %54 = load ptr, ptr %9, align 8
  store ptr %54, ptr %3, align 8
  store i32 1, ptr %10, align 4
  br label %55

55:                                               ; preds = %25, %24, %16
  call void @llvm.lifetime.end.p0(i64 8, ptr %9) #10
  call void @llvm.lifetime.end.p0(i64 8, ptr %8) #10
  call void @llvm.lifetime.end.p0(i64 8, ptr %7) #10
  call void @llvm.lifetime.end.p0(i64 4, ptr %6) #10
  %56 = load ptr, ptr %3, align 8
  ret ptr %56
}