; Function Attrs: null_pointer_is_valid sspstrong uwtable
define hidden noundef ptr @tvb_ntp_fmt_ts_sec(ptr noundef %0, i32 noundef %1) local_unnamed_addr #0 {
  %3 = alloca i64, align 8
  call void @llvm.lifetime.start.p0(i64 8, ptr nonnull %3) #9
  %4 = tail call i32 @tvb_get_ntohl(ptr noundef %0, i32 noundef %1)
  %5 = icmp eq i32 %4, 0
  br i1 %5, label %29, label %6

6:                                                ; preds = %2
  %7 = add i32 %4, 2085978496
  %8 = zext i32 %7 to i64
  store i64 %8, ptr %3, align 8
  %9 = call ptr @gmtime(ptr noundef nonnull %3) #9
  %.not = icmp eq ptr %9, null
  br i1 %.not, label %29, label %10

10:                                               ; preds = %6
  %11 = call ptr @wmem_packet_scope()
  %12 = call noalias dereferenceable_or_null(110) ptr @wmem_alloc(ptr noundef %11, i64 noundef 110) #10
  %13 = getelementptr inbounds nuw i8, ptr %9, i64 16
  %14 = load i32, ptr %13, align 8
  %15 = sext i32 %14 to i64
  %16 = getelementptr [12 x ptr], ptr @mon_names, i64 0, i64 %15
  %17 = load ptr, ptr %16, align 8
  %18 = getelementptr inbounds nuw i8, ptr %9, i64 12
  %19 = load i32, ptr %18, align 4
  %20 = getelementptr inbounds nuw i8, ptr %9, i64 20
  %21 = load i32, ptr %20, align 4
  %22 = add i32 %21, 1900
  %23 = getelementptr inbounds nuw i8, ptr %9, i64 8
  %24 = load i32, ptr %23, align 8
  %25 = getelementptr inbounds nuw i8, ptr %9, i64 4
  %26 = load i32, ptr %25, align 4
  %27 = load i32, ptr %9, align 8
  %28 = call i32 (ptr, i64, i32, i64, ptr, ...) @__snprintf_chk(ptr noundef %12, i64 noundef 110, i32 noundef 2, i64 noundef 110, ptr noundef nonnull @.str.2, ptr noundef %17, i32 noundef %19, i32 noundef %22, i32 noundef %24, i32 noundef %26, i32 noundef %27)
  br label %29

29:                                               ; preds = %6, %2, %10
  %.0 = phi ptr [ %12, %10 ], [ @.str, %2 ], [ @.str.1, %6 ]
  call void @llvm.lifetime.end.p0(i64 8, ptr nonnull %3) #9
  ret ptr %.0
}